(dp0
S'4abdabbf8176d2f0de10945669ae8a7eb545e6de'
p1
(dp2
S'end'
p3
S'2016-08-02 20:00:00'
p4
sS'facility'
p5
S'Y'
p6
sS'default'
p7
F53.27
sS'pos'
p8
F53.27
sS'start'
p9
S'2016-08-02 19:01:00'
p10
sS'rowid'
p11
I1014
sS'vav'
p12
S'81-VAV-0326'
p13
ssS'959f859f9cc5206f1291b2419df8a74510934974'
p14
(dp15
g3
S'2016-08-04 10:59:00'
p16
sg5
S'Y'
p17
sg7
F53.27
sg8
F53.27
sg9
S'2016-08-04 09:00:00'
p18
sg11
I1005
sg12
S'81-VAV-0326'
p19
ssS'6182e6cf0ee2f41d1384fc39db95793d2c19e5d6'
p20
(dp21
g3
S'2016-08-03 10:59:00'
p22
sg5
S'Y'
p23
sg7
F53.27
sg8
F53.27
sg9
S'2016-08-03 09:00:00'
p24
sg11
I1005
sg12
S'81-VAV-0326'
p25
ssS'23a306cfa7048d21233bc94077575b5f118fa608'
p26
(dp27
g3
S'2016-08-03 15:00:00'
p28
sg5
S'Y'
p29
sg7
F53.27
sg8
F53.27
sg9
S'2016-08-03 14:01:00'
p30
sg11
I1009
sg12
S'81-VAV-0326'
p31
ssS'ef9b4557e907bdca87e06e6041a1347c153a5edc'
p32
(dp33
g3
S'2016-07-31 16:00:00'
p34
sg5
S'Y'
p35
sg7
F53.27
sg8
F53.27
sg9
S'2016-07-31 15:01:00'
p36
sg11
I1010
sg12
S'81-VAV-0326'
p37
ssS'699ecf88af2ff86ecb78fc7806e75bd8fb5f94c1'
p38
(dp39
g3
S'2016-08-04 14:00:00'
p40
sg5
S'Y'
p41
sg7
F53.27
sg8
F53.27
sg9
S'2016-08-04 13:01:00'
p42
sg11
I1008
sg12
S'81-VAV-0326'
p43
ssS'2537df0d20f17d596d45b38a35aba2e6d248750c'
p44
(dp45
g3
S'2016-08-04 13:00:00'
p46
sg5
S'Y'
p47
sg7
F53.27
sg8
F53.27
sg9
S'2016-08-04 12:01:00'
p48
sg11
I1007
sg12
S'81-VAV-0326'
p49
ssS'ad1a99e8824ca7c924b5e6e14305366d9e16aa60'
p50
(dp51
g3
S'2016-08-05 16:00:00'
p52
sg5
S'Y'
p53
sg7
F53.27
sg8
F53.27
sg9
S'2016-08-05 15:01:00'
p54
sg11
I1010
sg12
S'81-VAV-0326'
p55
ssS'91e738bc362e8d25d72e6dcddce8ffb32418d5e0'
p56
(dp57
g3
S'2016-08-03 19:00:00'
p58
sg5
S'Y'
p59
sg7
F53.27
sg8
F53.27
sg9
S'2016-08-03 18:01:00'
p60
sg11
I1013
sg12
S'81-VAV-0326'
p61
ssS'29d7923f2fe5cd6d70eaabbe4a8cffcafc230f1a'
p62
(dp63
g3
S'2016-08-02 12:00:00'
p64
sg5
S'Y'
p65
sg7
F53.27
sg8
F53.27
sg9
S'2016-08-02 11:01:00'
p66
sg11
I1006
sg12
S'81-VAV-0326'
p67
ssS'11eb09a3c5414419aa325ac74f8c185d04668a9e'
p68
(dp69
g3
S'2016-08-02 19:00:00'
p70
sg5
S'Y'
p71
sg7
F53.27
sg8
F53.27
sg9
S'2016-08-02 18:01:00'
p72
sg11
I1013
sg12
S'81-VAV-0326'
p73
ssS'4ab21356cb798b0250effe1ab64abd668f3e5c5a'
p74
(dp75
g3
S'2016-08-05 17:00:00'
p76
sg5
S'Y'
p77
sg7
F53.27
sg8
F53.27
sg9
S'2016-08-05 16:01:00'
p78
sg11
I1011
sg12
S'81-VAV-0326'
p79
ssS'e77eb404178d37db7fcda5c836ab540a22204655'
p80
(dp81
g3
S'2016-08-03 18:00:00'
p82
sg5
S'Y'
p83
sg7
F53.27
sg8
F53.27
sg9
S'2016-08-03 17:01:00'
p84
sg11
I1012
sg12
S'81-VAV-0326'
p85
ssS'f29a94cd6ec65d2700e2330eb9ed9350123d1fb2'
p86
(dp87
g3
S'2016-08-01 16:00:00'
p88
sg5
S'Y'
p89
sg7
F53.27
sg8
F53.27
sg9
S'2016-08-01 15:01:00'
p90
sg11
I1010
sg12
S'81-VAV-0326'
p91
ssS'01c358b8395199e312637f0724f90a3d36f53762'
p92
(dp93
g3
S'2016-08-03 17:00:00'
p94
sg5
S'Y'
p95
sg7
F53.27
sg8
F53.27
sg9
S'2016-08-03 16:01:00'
p96
sg11
I1011
sg12
S'81-VAV-0326'
p97
ssS'08e0ce5994b0d7f23c6f7277d59875529357c9b6'
p98
(dp99
g3
S'2016-08-02 18:00:00'
p100
sg5
S'Y'
p101
sg7
F53.27
sg8
F53.27
sg9
S'2016-08-02 17:01:00'
p102
sg11
I1012
sg12
S'81-VAV-0326'
p103
ssS'8d0923ce3e7f88a4c599ecdaedf1e2cc8433da05'
p104
(dp105
g3
S'2016-08-02 21:00:00'
p106
sg5
S'Y'
p107
sg7
F53.27
sg8
F53.27
sg9
S'2016-08-02 20:01:00'
p108
sg11
I1015
sg12
S'81-VAV-0326'
p109
ssS'bf02dce39e495a77a30af3d99885161d30bcd745'
p110
(dp111
g3
S'2016-08-03 13:00:00'
p112
sg5
S'Y'
p113
sg7
F53.27
sg8
F53.27
sg9
S'2016-08-03 12:01:00'
p114
sg11
I1007
sg12
S'81-VAV-0326'
p115
ssS'3ac17d23e10ce2477237db912b83870e4c053beb'
p116
(dp117
g3
S'2016-08-04 12:00:00'
p118
sg5
S'Y'
p119
sg7
F53.27
sg8
F53.27
sg9
S'2016-08-04 11:01:00'
p120
sg11
I1006
sg12
S'81-VAV-0326'
p121
ssS'ad65c22009672087ae703875d166dd14d9e32302'
p122
(dp123
g3
S'2016-08-02 13:00:00'
p124
sg5
S'Y'
p125
sg7
F53.27
sg8
F53.27
sg9
S'2016-08-02 12:01:00'
p126
sg11
I1007
sg12
S'81-VAV-0326'
p127
ssS'3f5f51f04677a8c16ccc49213e3ff4cf13a3b428'
p128
(dp129
g3
S'2016-08-01 17:00:00'
p130
sg5
S'Y'
p131
sg7
F53.27
sg8
F53.27
sg9
S'2016-08-01 16:01:00'
p132
sg11
I1011
sg12
S'81-VAV-0326'
p133
ssS'967c505a8ddf61600533f4ce773a220695729bc4'
p134
(dp135
g3
S'2016-08-03 21:00:00'
p136
sg5
S'Y'
p137
sg7
F53.27
sg8
F53.27
sg9
S'2016-08-03 20:01:00'
p138
sg11
I1015
sg12
S'81-VAV-0326'
p139
ssS'0217a2dc6f2173b73b5f232cd4a109ae4fa5768a'
p140
(dp141
g3
S'2016-08-03 14:00:00'
p142
sg5
S'Y'
p143
sg7
F53.27
sg8
F53.27
sg9
S'2016-08-03 13:01:00'
p144
sg11
I1008
sg12
S'81-VAV-0326'
p145
ssS'c83bb08dd4cff616955bb5c3d4b772f241d66ebe'
p146
(dp147
g3
S'2016-08-02 15:00:00'
p148
sg5
S'Y'
p149
sg7
F53.27
sg8
F53.27
sg9
S'2016-08-02 14:01:00'
p150
sg11
I1009
sg12
S'81-VAV-0326'
p151
ssS'7e4957c1ebb58faf239b70eee4a7d401f0255665'
p152
(dp153
g3
S'2016-08-04 21:00:00'
p154
sg5
S'Y'
p155
sg7
F53.27
sg8
F53.27
sg9
S'2016-08-04 20:01:00'
p156
sg11
I1015
sg12
S'81-VAV-0326'
p157
ssS'6954b643f7cdea9c1aad3e0684a59186d36c0db8'
p158
(dp159
g3
S'2016-08-03 22:00:00'
p160
sg5
S'Y'
p161
sg7
F53.27
sg8
F53.27
sg9
S'2016-08-03 21:50:00'
p162
sg11
I1016
sg12
S'81-VAV-0326'
p163
ssS'28c61e61bc108a20a0ad35982ae6d1ff4afd571d'
p164
(dp165
g3
S'2016-08-04 16:00:00'
p166
sg5
S'Y'
p167
sg7
F53.27
sg8
F53.27
sg9
S'2016-08-04 15:01:00'
p168
sg11
I1010
sg12
S'81-VAV-0326'
p169
ssS'9b84b51f4d8c96b6a32845f61cf1a69da1979f6e'
p170
(dp171
g3
S'2016-08-03 16:00:00'
p172
sg5
S'Y'
p173
sg7
F53.27
sg8
F53.27
sg9
S'2016-08-03 15:01:00'
p174
sg11
I1010
sg12
S'81-VAV-0326'
p175
ssS'ae5094cc200e36e014e780c3bd80cc52d992e41a'
p176
(dp177
g3
S'2016-08-04 22:00:00'
p178
sg5
S'Y'
p179
sg7
F53.27
sg8
F53.27
sg9
S'2016-08-04 21:50:00'
p180
sg11
I1016
sg12
S'81-VAV-0326'
p181
ssS'34d91d6735750fa6553934a78e4b185a238066e8'
p182
(dp183
g3
S'2016-08-02 10:59:00'
p184
sg5
S'Y'
p185
sg7
F53.27
sg8
F53.27
sg9
S'2016-08-02 09:00:00'
p186
sg11
I1005
sg12
S'81-VAV-0326'
p187
ssS'edbcba26cc0447026a7e6310f3ae705c629cddea'
p188
(dp189
g3
S'2016-08-04 20:00:00'
p190
sg5
S'Y'
p191
sg7
F53.27
sg8
F53.27
sg9
S'2016-08-04 19:01:00'
p192
sg11
I1014
sg12
S'81-VAV-0326'
p193
ssS'1c606c7d849cf648113933dd4c38a210a156ee9f'
p194
(dp195
g3
S'2016-08-03 20:00:00'
p196
sg5
S'Y'
p197
sg7
F53.27
sg8
F53.27
sg9
S'2016-08-03 19:01:00'
p198
sg11
I1014
sg12
S'81-VAV-0326'
p199
ssS'ea65c8453d198695002b4aabca499ecf39ed9bf5'
p200
(dp201
g3
S'2016-08-01 22:00:00'
p202
sg5
S'Y'
p203
sg7
F53.27
sg8
F53.27
sg9
S'2016-08-01 21:50:00'
p204
sg11
I1016
sg12
S'81-VAV-0326'
p205
ssS'd04c5ff03c806ec328bcdc034f9fead4abd97b92'
p206
(dp207
g3
S'2016-08-05 18:00:00'
p208
sg5
S'Y'
p209
sg7
F53.27
sg8
F53.27
sg9
S'2016-08-05 17:01:00'
p210
sg11
I1012
sg12
S'81-VAV-0326'
p211
ssS'f1df717d582f4119e35838b56b4815b025f9f800'
p212
(dp213
g3
S'2016-08-02 22:00:00'
p214
sg5
S'Y'
p215
sg7
F53.27
sg8
F53.27
sg9
S'2016-08-02 21:50:00'
p216
sg11
I1016
sg12
S'81-VAV-0326'
p217
ssS'ebe209b9e3f4274a908b21e3e15b4ee5caccb7e4'
p218
(dp219
g3
S'2016-08-02 16:00:00'
p220
sg5
S'Y'
p221
sg7
F53.27
sg8
F53.27
sg9
S'2016-08-02 15:01:00'
p222
sg11
I1010
sg12
S'81-VAV-0326'
p223
ssS'7cbde6246ca7b8a4df08398d13a722568f146884'
p224
(dp225
g3
S'2016-08-03 12:00:00'
p226
sg5
S'Y'
p227
sg7
F53.27
sg8
F53.27
sg9
S'2016-08-03 11:01:00'
p228
sg11
I1006
sg12
S'81-VAV-0326'
p229
ss.